target datalayout = "e-m:e-p270:32:32-p271:32:32-p272:64:64-i64:64-i128:128-f80:128-n8:16:32:64-S128"
target triple = "x86_64-pc-linux-gnu"

%"class.pxrInternal_v0_24__pxrReserved__::GfMatrix3f" = type { %"class.pxrInternal_v0_24__pxrReserved__::GfMatrixData" }
%"class.pxrInternal_v0_24__pxrReserved__::GfMatrixData" = type { [9 x float] }
%"class.pxrInternal_v0_24__pxrReserved__::GfMatrix3d" = type { %"class.pxrInternal_v0_24__pxrReserved__::GfMatrixData.0" }
%"class.pxrInternal_v0_24__pxrReserved__::GfMatrixData.0" = type { [9 x double] }

; Function Attrs: mustprogress nounwind uwtable
define linkonce_odr noundef ptr @_ZN32pxrInternal_v0_24__pxrReserved__12GfMatrixDataIfLi3ELi3EEixEi(ptr noundef nonnull align 4 dereferenceable(36) %0, i32 noundef %1) #2 comdat align 2 {
  %3 = alloca ptr, align 8
  %4 = alloca i32, align 4
  store ptr %0, ptr %3, align 8
  store i32 %1, ptr %4, align 4
  %5 = load ptr, ptr %3, align 8
  %6 = getelementptr inbounds nuw %"class.pxrInternal_v0_24__pxrReserved__::GfMatrixData", ptr %5, i32 0, i32 0
  %7 = getelementptr inbounds [9 x float], ptr %6, i64 0, i64 0
  %8 = load i32, ptr %4, align 4
  %9 = mul nsw i32 %8, 3
  %10 = sext i32 %9 to i64
  %11 = getelementptr inbounds float, ptr %7, i64 %10
  ret ptr %11
}

; Function Attrs: mustprogress nounwind uwtable
define linkonce_odr noundef ptr @_ZNK32pxrInternal_v0_24__pxrReserved__12GfMatrixDataIdLi3ELi3EEixEi(ptr noundef nonnull align 8 dereferenceable(72) %0, i32 noundef %1) #2 comdat align 2 {
  %3 = alloca ptr, align 8
  %4 = alloca i32, align 4
  store ptr %0, ptr %3, align 8
  store i32 %1, ptr %4, align 4
  %5 = load ptr, ptr %3, align 8
  %6 = getelementptr inbounds nuw %"class.pxrInternal_v0_24__pxrReserved__::GfMatrixData.0", ptr %5, i32 0, i32 0
  %7 = getelementptr inbounds [9 x double], ptr %6, i64 0, i64 0
  %8 = load i32, ptr %4, align 4
  %9 = mul nsw i32 %8, 3
  %10 = sext i32 %9 to i64
  %11 = getelementptr inbounds double, ptr %7, i64 %10
  ret ptr %11
}

; Function Attrs: mustprogress uwtable
define linkonce_odr noundef nonnull align 4 dereferenceable(36) ptr @_ZN32pxrInternal_v0_24__pxrReserved__10GfMatrix3f3SetEfffffffff(ptr noundef nonnull align 4 dereferenceable(36) %0, float noundef %1, float noundef %2, float noundef %3, float noundef %4, float noundef %5, float noundef %6, float noundef %7, float noundef %8, float noundef %9) #0 comdat align 2 {
  %11 = alloca ptr, align 8
  %12 = alloca float, align 4
  %13 = alloca float, align 4
  %14 = alloca float, align 4
  %15 = alloca float, align 4
  %16 = alloca float, align 4
  %17 = alloca float, align 4
  %18 = alloca float, align 4
  %19 = alloca float, align 4
  %20 = alloca float, align 4
  store ptr %0, ptr %11, align 8
  store float %1, ptr %12, align 4
  store float %2, ptr %13, align 4
  store float %3, ptr %14, align 4
  store float %4, ptr %15, align 4
  store float %5, ptr %16, align 4
  store float %6, ptr %17, align 4
  store float %7, ptr %18, align 4
  store float %8, ptr %19, align 4
  store float %9, ptr %20, align 4
  %21 = load ptr, ptr %11, align 8
  %22 = load float, ptr %12, align 4
  %23 = getelementptr inbounds nuw %"class.pxrInternal_v0_24__pxrReserved__::GfMatrix3f", ptr %21, i32 0, i32 0
  %24 = call noundef ptr @_ZN32pxrInternal_v0_24__pxrReserved__12GfMatrixDataIfLi3ELi3EEixEi(ptr noundef nonnull align 4 dereferenceable(36) %23, i32 noundef 0)
  %25 = getelementptr inbounds float, ptr %24, i64 0
  store float %22, ptr %25, align 4
  %26 = load float, ptr %13, align 4
  %27 = getelementptr inbounds nuw %"class.pxrInternal_v0_24__pxrReserved__::GfMatrix3f", ptr %21, i32 0, i32 0
  %28 = call noundef ptr @_ZN32pxrInternal_v0_24__pxrReserved__12GfMatrixDataIfLi3ELi3EEixEi(ptr noundef nonnull align 4 dereferenceable(36) %27, i32 noundef 0)
  %29 = getelementptr inbounds float, ptr %28, i64 1
  store float %26, ptr %29, align 4
  %30 = load float, ptr %14, align 4
  %31 = getelementptr inbounds nuw %"class.pxrInternal_v0_24__pxrReserved__::GfMatrix3f", ptr %21, i32 0, i32 0
  %32 = call noundef ptr @_ZN32pxrInternal_v0_24__pxrReserved__12GfMatrixDataIfLi3ELi3EEixEi(ptr noundef nonnull align 4 dereferenceable(36) %31, i32 noundef 0)
  %33 = getelementptr inbounds float, ptr %32, i64 2
  store float %30, ptr %33, align 4
  %34 = load float, ptr %15, align 4
  %35 = getelementptr inbounds nuw %"class.pxrInternal_v0_24__pxrReserved__::GfMatrix3f", ptr %21, i32 0, i32 0
  %36 = call noundef ptr @_ZN32pxrInternal_v0_24__pxrReserved__12GfMatrixDataIfLi3ELi3EEixEi(ptr noundef nonnull align 4 dereferenceable(36) %35, i32 noundef 1)
  %37 = getelementptr inbounds float, ptr %36, i64 0
  store float %34, ptr %37, align 4
  %38 = load float, ptr %16, align 4
  %39 = getelementptr inbounds nuw %"class.pxrInternal_v0_24__pxrReserved__::GfMatrix3f", ptr %21, i32 0, i32 0
  %40 = call noundef ptr @_ZN32pxrInternal_v0_24__pxrReserved__12GfMatrixDataIfLi3ELi3EEixEi(ptr noundef nonnull align 4 dereferenceable(36) %39, i32 noundef 1)
  %41 = getelementptr inbounds float, ptr %40, i64 1
  store float %38, ptr %41, align 4
  %42 = load float, ptr %17, align 4
  %43 = getelementptr inbounds nuw %"class.pxrInternal_v0_24__pxrReserved__::GfMatrix3f", ptr %21, i32 0, i32 0
  %44 = call noundef ptr @_ZN32pxrInternal_v0_24__pxrReserved__12GfMatrixDataIfLi3ELi3EEixEi(ptr noundef nonnull align 4 dereferenceable(36) %43, i32 noundef 1)
  %45 = getelementptr inbounds float, ptr %44, i64 2
  store float %42, ptr %45, align 4
  %46 = load float, ptr %18, align 4
  %47 = getelementptr inbounds nuw %"class.pxrInternal_v0_24__pxrReserved__::GfMatrix3f", ptr %21, i32 0, i32 0
  %48 = call noundef ptr @_ZN32pxrInternal_v0_24__pxrReserved__12GfMatrixDataIfLi3ELi3EEixEi(ptr noundef nonnull align 4 dereferenceable(36) %47, i32 noundef 2)
  %49 = getelementptr inbounds float, ptr %48, i64 0
  store float %46, ptr %49, align 4
  %50 = load float, ptr %19, align 4
  %51 = getelementptr inbounds nuw %"class.pxrInternal_v0_24__pxrReserved__::GfMatrix3f", ptr %21, i32 0, i32 0
  %52 = call noundef ptr @_ZN32pxrInternal_v0_24__pxrReserved__12GfMatrixDataIfLi3ELi3EEixEi(ptr noundef nonnull align 4 dereferenceable(36) %51, i32 noundef 2)
  %53 = getelementptr inbounds float, ptr %52, i64 1
  store float %50, ptr %53, align 4
  %54 = load float, ptr %20, align 4
  %55 = getelementptr inbounds nuw %"class.pxrInternal_v0_24__pxrReserved__::GfMatrix3f", ptr %21, i32 0, i32 0
  %56 = call noundef ptr @_ZN32pxrInternal_v0_24__pxrReserved__12GfMatrixDataIfLi3ELi3EEixEi(ptr noundef nonnull align 4 dereferenceable(36) %55, i32 noundef 2)
  %57 = getelementptr inbounds float, ptr %56, i64 2
  store float %54, ptr %57, align 4
  ret ptr %21
}

; Function Attrs: mustprogress uwtable
define linkonce_odr noundef ptr @_ZNK32pxrInternal_v0_24__pxrReserved__10GfMatrix3dixEi(ptr noundef nonnull align 8 dereferenceable(72) %0, i32 noundef %1) #0 comdat align 2 {
  %3 = alloca ptr, align 8
  %4 = alloca i32, align 4
  store ptr %0, ptr %3, align 8
  store i32 %1, ptr %4, align 4
  %5 = load ptr, ptr %3, align 8
  %6 = getelementptr inbounds nuw %"class.pxrInternal_v0_24__pxrReserved__::GfMatrix3d", ptr %5, i32 0, i32 0
  %7 = load i32, ptr %4, align 4
  %8 = call noundef ptr @_ZNK32pxrInternal_v0_24__pxrReserved__12GfMatrixDataIdLi3ELi3EEixEi(ptr noundef nonnull align 8 dereferenceable(72) %6, i32 noundef %7)
  ret ptr %8
}

; Function Attrs: mustprogress uwtable
define void @_ZN32pxrInternal_v0_24__pxrReserved__10GfMatrix3fC2ERKNS_10GfMatrix3dE(ptr noundef nonnull align 4 dereferenceable(36) %0, ptr noundef nonnull align 8 dereferenceable(72) %1) unnamed_addr #0 align 2 {
  %3 = alloca ptr, align 8
  %4 = alloca ptr, align 8
  store ptr %0, ptr %3, align 8
  store ptr %1, ptr %4, align 8
  %5 = load ptr, ptr %3, align 8
  %6 = load ptr, ptr %4, align 8
  %7 = call noundef ptr @_ZNK32pxrInternal_v0_24__pxrReserved__10GfMatrix3dixEi(ptr noundef nonnull align 8 dereferenceable(72) %6, i32 noundef 0)
  %8 = getelementptr inbounds double, ptr %7, i64 0
  %9 = load double, ptr %8, align 8
  %10 = fptrunc double %9 to float
  %11 = load ptr, ptr %4, align 8
  %12 = call noundef ptr @_ZNK32pxrInternal_v0_24__pxrReserved__10GfMatrix3dixEi(ptr noundef nonnull align 8 dereferenceable(72) %11, i32 noundef 0)
  %13 = getelementptr inbounds double, ptr %12, i64 1
  %14 = load double, ptr %13, align 8
  %15 = fptrunc double %14 to float
  %16 = load ptr, ptr %4, align 8
  %17 = call noundef ptr @_ZNK32pxrInternal_v0_24__pxrReserved__10GfMatrix3dixEi(ptr noundef nonnull align 8 dereferenceable(72) %16, i32 noundef 0)
  %18 = getelementptr inbounds double, ptr %17, i64 2
  %19 = load double, ptr %18, align 8
  %20 = fptrunc double %19 to float
  %21 = load ptr, ptr %4, align 8
  %22 = call noundef ptr @_ZNK32pxrInternal_v0_24__pxrReserved__10GfMatrix3dixEi(ptr noundef nonnull align 8 dereferenceable(72) %21, i32 noundef 1)
  %23 = getelementptr inbounds double, ptr %22, i64 0
  %24 = load double, ptr %23, align 8
  %25 = fptrunc double %24 to float
  %26 = load ptr, ptr %4, align 8
  %27 = call noundef ptr @_ZNK32pxrInternal_v0_24__pxrReserved__10GfMatrix3dixEi(ptr noundef nonnull align 8 dereferenceable(72) %26, i32 noundef 1)
  %28 = getelementptr inbounds double, ptr %27, i64 1
  %29 = load double, ptr %28, align 8
  %30 = fptrunc double %29 to float
  %31 = load ptr, ptr %4, align 8
  %32 = call noundef ptr @_ZNK32pxrInternal_v0_24__pxrReserved__10GfMatrix3dixEi(ptr noundef nonnull align 8 dereferenceable(72) %31, i32 noundef 1)
  %33 = getelementptr inbounds double, ptr %32, i64 2
  %34 = load double, ptr %33, align 8
  %35 = fptrunc double %34 to float
  %36 = load ptr, ptr %4, align 8
  %37 = call noundef ptr @_ZNK32pxrInternal_v0_24__pxrReserved__10GfMatrix3dixEi(ptr noundef nonnull align 8 dereferenceable(72) %36, i32 noundef 2)
  %38 = getelementptr inbounds double, ptr %37, i64 0
  %39 = load double, ptr %38, align 8
  %40 = fptrunc double %39 to float
  %41 = load ptr, ptr %4, align 8
  %42 = call noundef ptr @_ZNK32pxrInternal_v0_24__pxrReserved__10GfMatrix3dixEi(ptr noundef nonnull align 8 dereferenceable(72) %41, i32 noundef 2)
  %43 = getelementptr inbounds double, ptr %42, i64 1
  %44 = load double, ptr %43, align 8
  %45 = fptrunc double %44 to float
  %46 = load ptr, ptr %4, align 8
  %47 = call noundef ptr @_ZNK32pxrInternal_v0_24__pxrReserved__10GfMatrix3dixEi(ptr noundef nonnull align 8 dereferenceable(72) %46, i32 noundef 2)
  %48 = getelementptr inbounds double, ptr %47, i64 2
  %49 = load double, ptr %48, align 8
  %50 = fptrunc double %49 to float
  %51 = call noundef nonnull align 4 dereferenceable(36) ptr @_ZN32pxrInternal_v0_24__pxrReserved__10GfMatrix3f3SetEfffffffff(ptr noundef nonnull align 4 dereferenceable(36) %5, float noundef %10, float noundef %15, float noundef %20, float noundef %25, float noundef %30, float noundef %35, float noundef %40, float noundef %45, float noundef %50)
  ret void
}