; Function Attrs: mustprogress nofree norecurse nosync nounwind willreturn memory(argmem: readwrite) uwtable
define void @_ZN32pxrInternal_v0_24__pxrReserved__10GfMatrix3fC2ERKNS_10GfMatrix3dE(ptr nocapture noundef nonnull writeonly align 4 dereferenceable(36) %0, ptr nocapture noundef nonnull readonly align 8 dereferenceable(72) %1) unnamed_addr #2 align 2 {
  %3 = load double, ptr %1, align 8
  %4 = fptrunc double %3 to float
  %5 = getelementptr inbounds i8, ptr %1, i64 8
  %6 = load double, ptr %5, align 8
  %7 = fptrunc double %6 to float
  %8 = getelementptr inbounds i8, ptr %1, i64 16
  %9 = load double, ptr %8, align 8
  %10 = fptrunc double %9 to float
  %11 = getelementptr inbounds i8, ptr %1, i64 24
  %12 = load double, ptr %11, align 8
  %13 = fptrunc double %12 to float
  %14 = getelementptr inbounds i8, ptr %1, i64 32
  %15 = load double, ptr %14, align 8
  %16 = fptrunc double %15 to float
  %17 = getelementptr inbounds i8, ptr %1, i64 40
  %18 = load double, ptr %17, align 8
  %19 = fptrunc double %18 to float
  %20 = getelementptr inbounds i8, ptr %1, i64 48
  %21 = load double, ptr %20, align 8
  %22 = fptrunc double %21 to float
  %23 = getelementptr inbounds i8, ptr %1, i64 56
  %24 = load double, ptr %23, align 8
  %25 = fptrunc double %24 to float
  %26 = getelementptr inbounds i8, ptr %1, i64 64
  %27 = load double, ptr %26, align 8
  %28 = fptrunc double %27 to float
  store float %4, ptr %0, align 4
  %29 = getelementptr inbounds i8, ptr %0, i64 4
  store float %7, ptr %29, align 4
  %30 = getelementptr inbounds i8, ptr %0, i64 8
  store float %10, ptr %30, align 4
  %31 = getelementptr inbounds i8, ptr %0, i64 12
  store float %13, ptr %31, align 4
  %32 = getelementptr inbounds i8, ptr %0, i64 16
  store float %16, ptr %32, align 4
  %33 = getelementptr inbounds i8, ptr %0, i64 20
  store float %19, ptr %33, align 4
  %34 = getelementptr inbounds i8, ptr %0, i64 24
  store float %22, ptr %34, align 4
  %35 = getelementptr inbounds i8, ptr %0, i64 28
  store float %25, ptr %35, align 4
  %36 = getelementptr inbounds i8, ptr %0, i64 32
  store float %28, ptr %36, align 4
  ret void
}